target datalayout = "e-m:e-p270:32:32-p271:32:32-p272:64:64-i64:64-i128:128-f80:128-n8:16:32:64-S128"
target triple = "x86_64-pc-linux-gnu"

; Function Attrs: inlinehint nounwind null_pointer_is_valid sspstrong uwtable
define internal zeroext i16 @pntoh16(ptr noundef %0) #3 {
  %2 = alloca ptr, align 8
  store ptr %0, ptr %2, align 8
  %3 = load ptr, ptr %2, align 8
  %4 = getelementptr i8, ptr %3, i64 0
  %5 = load i8, ptr %4, align 1
  %6 = zext i8 %5 to i16
  %7 = zext i16 %6 to i32
  %8 = shl i32 %7, 8
  %9 = load ptr, ptr %2, align 8
  %10 = getelementptr i8, ptr %9, i64 1
  %11 = load i8, ptr %10, align 1
  %12 = zext i8 %11 to i16
  %13 = zext i16 %12 to i32
  %14 = shl i32 %13, 0
  %15 = or i32 %8, %14
  %16 = trunc i32 %15 to i16
  ret i16 %16
}

; Function Attrs: inlinehint nounwind null_pointer_is_valid sspstrong uwtable
define internal zeroext i16 @pletoh16(ptr noundef %0) #3 {
  %2 = alloca ptr, align 8
  store ptr %0, ptr %2, align 8
  %3 = load ptr, ptr %2, align 8
  %4 = getelementptr i8, ptr %3, i64 1
  %5 = load i8, ptr %4, align 1
  %6 = zext i8 %5 to i16
  %7 = zext i16 %6 to i32
  %8 = shl i32 %7, 8
  %9 = load ptr, ptr %2, align 8
  %10 = getelementptr i8, ptr %9, i64 0
  %11 = load i8, ptr %10, align 1
  %12 = zext i8 %11 to i16
  %13 = zext i16 %12 to i32
  %14 = shl i32 %13, 0
  %15 = or i32 %8, %14
  %16 = trunc i32 %15 to i16
  ret i16 %16
}

; Function Attrs: null_pointer_is_valid sspstrong uwtable
define ptr @get_ucs_2_string(ptr noundef %0, ptr noundef %1, i32 noundef %2, i32 noundef %3) #0 {
  %5 = alloca ptr, align 8
  %6 = alloca ptr, align 8
  %7 = alloca i32, align 4
  %8 = alloca i32, align 4
  %9 = alloca i16, align 2
  %10 = alloca i32, align 4
  %11 = alloca ptr, align 8
  store ptr %0, ptr %5, align 8
  store ptr %1, ptr %6, align 8
  store i32 %2, ptr %7, align 4
  store i32 %3, ptr %8, align 4
  call void @llvm.lifetime.start.p0(i64 2, ptr %9) #8
  call void @llvm.lifetime.start.p0(i64 4, ptr %10) #8
  store i32 0, ptr %10, align 4
  call void @llvm.lifetime.start.p0(i64 8, ptr %11) #8
  %12 = load ptr, ptr %5, align 8
  %13 = load i32, ptr %7, align 4
  %14 = add i32 %13, 1
  %15 = sext i32 %14 to i64
  %16 = call noalias ptr @wmem_strbuf_new_sized(ptr noundef %12, i64 noundef %15)
  store ptr %16, ptr %11, align 8
  %17 = load i32, ptr %8, align 4
  %18 = and i32 %17, 536870912
  %19 = icmp ne i32 %18, 0
  br i1 %19, label %20, label %41

20:                                               ; preds = %4
  %21 = load i32, ptr %7, align 4
  %22 = icmp sge i32 %21, 2
  br i1 %22, label %23, label %41

23:                                               ; preds = %20
  %24 = load ptr, ptr %6, align 8
  %25 = call zeroext i16 @pletoh16(ptr noundef %24)
  %26 = zext i16 %25 to i32
  %27 = icmp eq i32 %26, 65279
  br i1 %27, label %28, label %31

28:                                               ; preds = %23
  store i32 -2147483648, ptr %8, align 4
  %29 = load i32, ptr %10, align 4
  %30 = add i32 %29, 2
  store i32 %30, ptr %10, align 4
  br label %40

31:                                               ; preds = %23
  %32 = load ptr, ptr %6, align 8
  %33 = call zeroext i16 @pntoh16(ptr noundef %32)
  %34 = zext i16 %33 to i32
  %35 = icmp eq i32 %34, 65279
  br i1 %35, label %36, label %39

36:                                               ; preds = %31
  store i32 0, ptr %8, align 4
  %37 = load i32, ptr %10, align 4
  %38 = add i32 %37, 2
  store i32 %38, ptr %10, align 4
  br label %39

39:                                               ; preds = %36, %31
  br label %40

40:                                               ; preds = %39, %28
  br label %41

41:                                               ; preds = %40, %20, %4
  %42 = load i32, ptr %8, align 4
  %43 = and i32 %42, -2147483648
  store i32 %43, ptr %8, align 4
  br label %44

44:                                               ; preds = %68, %41
  %45 = load i32, ptr %10, align 4
  %46 = add i32 %45, 1
  %47 = load i32, ptr %7, align 4
  %48 = icmp slt i32 %46, %47
  br i1 %48, label %49, label %71

49:                                               ; preds = %44
  %50 = load i32, ptr %8, align 4
  %51 = icmp eq i32 %50, 0
  br i1 %51, label %52, label %58

52:                                               ; preds = %49
  %53 = load ptr, ptr %6, align 8
  %54 = load i32, ptr %10, align 4
  %55 = sext i32 %54 to i64
  %56 = getelementptr i8, ptr %53, i64 %55
  %57 = call zeroext i16 @pntoh16(ptr noundef %56)
  store i16 %57, ptr %9, align 2
  br label %64

58:                                               ; preds = %49
  %59 = load ptr, ptr %6, align 8
  %60 = load i32, ptr %10, align 4
  %61 = sext i32 %60 to i64
  %62 = getelementptr i8, ptr %59, i64 %61
  %63 = call zeroext i16 @pletoh16(ptr noundef %62)
  store i16 %63, ptr %9, align 2
  br label %64

64:                                               ; preds = %58, %52
  %65 = load ptr, ptr %11, align 8
  %66 = load i16, ptr %9, align 2
  %67 = zext i16 %66 to i32
  call void @wmem_strbuf_append_unichar_validated(ptr noundef %65, i32 noundef %67)
  br label %68

68:                                               ; preds = %64
  %69 = load i32, ptr %10, align 4
  %70 = add i32 %69, 2
  store i32 %70, ptr %10, align 4
  br label %44, !llvm.loop !11

71:                                               ; preds = %44
  %72 = load i32, ptr %10, align 4
  %73 = load i32, ptr %7, align 4
  %74 = icmp slt i32 %72, %73
  br i1 %74, label %75, label %77

75:                                               ; preds = %71
  %76 = load ptr, ptr %11, align 8
  call void @wmem_strbuf_append_unichar(ptr noundef %76, i32 noundef 65533)
  br label %77

77:                                               ; preds = %75, %71
  %78 = load ptr, ptr %11, align 8
  %79 = call ptr @wmem_strbuf_finalize(ptr noundef %78)
  call void @llvm.lifetime.end.p0(i64 8, ptr %11) #8
  call void @llvm.lifetime.end.p0(i64 4, ptr %10) #8
  call void @llvm.lifetime.end.p0(i64 2, ptr %9) #8
  ret ptr %79
}