; Function Attrs: null_pointer_is_valid sspstrong uwtable
define ptr @get_ucs_2_string(ptr noundef %0, ptr noundef readonly captures(none) %1, i32 noundef %2, i32 noundef %3) local_unnamed_addr #0 {
  %5 = add i32 %2, 1
  %6 = sext i32 %5 to i64
  %7 = tail call noalias ptr @wmem_strbuf_new_sized(ptr noundef %0, i64 noundef %6)
  %8 = and i32 %3, 536870912
  %9 = icmp ne i32 %8, 0
  %10 = icmp sgt i32 %2, 1
  %or.cond = and i1 %10, %9
  br i1 %or.cond, label %11, label %20

11:                                               ; preds = %4
  %.val = load i8, ptr %1, align 1
  %12 = getelementptr i8, ptr %1, i64 1
  %.val27 = load i8, ptr %12, align 1
  %13 = zext i8 %.val27 to i16
  %14 = shl nuw i16 %13, 8
  %15 = zext i8 %.val to i16
  %16 = or disjoint i16 %14, %15
  %17 = icmp eq i16 %16, -257
  br i1 %17, label %.thread, label %18

18:                                               ; preds = %11
  %19 = icmp eq i16 %16, -2
  %spec.select = select i1 %19, i32 2, i32 0
  %spec.select26 = select i1 %19, i32 0, i32 %3
  br label %20

20:                                               ; preds = %18, %4
  %.023 = phi i32 [ 0, %4 ], [ %spec.select, %18 ]
  %.0 = phi i32 [ %3, %4 ], [ %spec.select26, %18 ]
  %21 = or disjoint i32 %.023, 1
  %22 = icmp slt i32 %21, %2
  br i1 %22, label %.lr.ph, label %._crit_edge

.thread:                                          ; preds = %11
  %23 = icmp samesign ugt i32 %2, 3
  br i1 %23, label %.lr.ph.split.preheader, label %._crit_edge

.lr.ph:                                           ; preds = %20
  %24 = icmp sgt i32 %.0, -1
  br i1 %24, label %.lr.ph.split.us, label %.lr.ph.split.preheader

.lr.ph.split.preheader:                           ; preds = %.thread, %.lr.ph
  %.134.ph = phi i32 [ 2, %.thread ], [ %.023, %.lr.ph ]
  br label %.lr.ph.split

.lr.ph.split.us:                                  ; preds = %.lr.ph, %.lr.ph.split.us
  %.134.us = phi i32 [ %32, %.lr.ph.split.us ], [ %.023, %.lr.ph ]
  %25 = sext i32 %.134.us to i64
  %26 = getelementptr i8, ptr %1, i64 %25
  %.val32.us = load i8, ptr %26, align 1
  %27 = getelementptr i8, ptr %26, i64 1
  %.val33.us = load i8, ptr %27, align 1
  %28 = zext i8 %.val32.us to i32
  %29 = shl nuw nsw i32 %28, 8
  %30 = zext i8 %.val33.us to i32
  %31 = or disjoint i32 %29, %30
  tail call void @wmem_strbuf_append_unichar_validated(ptr noundef %7, i32 noundef %31)
  %32 = add i32 %.134.us, 2
  %33 = or disjoint i32 %32, 1
  %34 = icmp slt i32 %33, %2
  br i1 %34, label %.lr.ph.split.us, label %._crit_edge, !llvm.loop !11

.lr.ph.split:                                     ; preds = %.lr.ph.split.preheader, %.lr.ph.split
  %.134 = phi i32 [ %38, %.lr.ph.split ], [ %.134.ph, %.lr.ph.split.preheader ]
  %35 = sext i32 %.134 to i64
  %36 = getelementptr i8, ptr %1, i64 %35
  %.val28 = load i16, ptr %36, align 1
  %37 = zext i16 %.val28 to i32
  tail call void @wmem_strbuf_append_unichar_validated(ptr noundef %7, i32 noundef %37)
  %38 = add i32 %.134, 2
  %39 = or disjoint i32 %38, 1
  %40 = icmp slt i32 %39, %2
  br i1 %40, label %.lr.ph.split, label %._crit_edge, !llvm.loop !11

._crit_edge:                                      ; preds = %.lr.ph.split.us, %.lr.ph.split, %.thread, %20
  %.1.lcssa = phi i32 [ %.023, %20 ], [ 2, %.thread ], [ %38, %.lr.ph.split ], [ %32, %.lr.ph.split.us ]
  %41 = icmp slt i32 %.1.lcssa, %2
  br i1 %41, label %42, label %43

42:                                               ; preds = %._crit_edge
  tail call void @wmem_strbuf_append_unichar(ptr noundef %7, i32 noundef 65533)
  br label %43

43:                                               ; preds = %42, %._crit_edge
  %44 = tail call ptr @wmem_strbuf_finalize(ptr noundef %7)
  ret ptr %44
}